target datalayout = "e-m:e-p270:32:32-p271:32:32-p272:64:64-i64:64-i128:128-f80:128-n8:16:32:64-S128"
target triple = "x86_64-pc-linux-gnu"

%struct.archive_read = type { %struct.archive, ptr, i32, i64, i64, %struct.archive_read_client, [16 x %struct.archive_read_filter_bidder], ptr, i32, i64, i32, i32, [16 x %struct.archive_format_descriptor], ptr, ptr, ptr, %struct.anon }
%struct.archive = type { i32, i32, ptr, i32, ptr, i32, i32, ptr, %struct.archive_string, ptr, i32, i32, ptr, ptr, i64, i64, i64, i8, i64 }
%struct.archive_string = type { ptr, i64, i64 }
%struct.archive_read_client = type { ptr, ptr, ptr, ptr, ptr, ptr, i32, i32, i64, ptr }
%struct.archive_read_filter_bidder = type { ptr, ptr, ptr }
%struct.archive_format_descriptor = type { ptr, ptr, ptr, ptr, ptr, ptr, ptr, ptr, ptr, ptr, ptr }
%struct.anon = type { ptr, ptr, i32, ptr, ptr }
%struct.tar = type { %struct.archive_string, %struct.archive_string, %struct.archive_string, %struct.archive_string, %struct.archive_string, %struct.archive_string, i32, i64, i64, i64, i64, i64, ptr, ptr, i64, i64, i32, i32, i8, i8, %struct.archive_string, ptr, ptr, ptr, ptr, i32, i32, i32, i32, i32 }

@.str.8 = private unnamed_addr constant [10 x i8] c"compat-2x\00", align 1
@.str.9 = private unnamed_addr constant [11 x i8] c"hdrcharset\00", align 1
@.str.10 = private unnamed_addr constant [50 x i8] c"tar: hdrcharset option needs a character-set name\00", align 1
@.str.11 = private unnamed_addr constant [8 x i8] c"mac-ext\00", align 1
@.str.12 = private unnamed_addr constant [27 x i8] c"read_concatenated_archives\00", align 1

; Function Attrs: nounwind uwtable
define internal i32 @archive_read_format_tar_options(ptr noundef %0, ptr noundef %1, ptr noundef %2) #0 {
  %4 = alloca i32, align 4
  %5 = alloca ptr, align 8
  %6 = alloca ptr, align 8
  %7 = alloca ptr, align 8
  %8 = alloca ptr, align 8
  %9 = alloca i32, align 4
  %10 = alloca i32, align 4
  store ptr %0, ptr %5, align 8, !tbaa !11
  store ptr %1, ptr %6, align 8, !tbaa !15
  store ptr %2, ptr %7, align 8, !tbaa !15
  call void @llvm.lifetime.start.p0(i64 8, ptr %8) #10
  call void @llvm.lifetime.start.p0(i64 4, ptr %9) #10
  store i32 -25, ptr %9, align 4, !tbaa !9
  %11 = load ptr, ptr %5, align 8, !tbaa !11
  %12 = getelementptr inbounds nuw %struct.archive_read, ptr %11, i32 0, i32 13
  %13 = load ptr, ptr %12, align 8, !tbaa !20
  %14 = getelementptr inbounds nuw %struct.archive_format_descriptor, ptr %13, i32 0, i32 0
  %15 = load ptr, ptr %14, align 8, !tbaa !36
  store ptr %15, ptr %8, align 8, !tbaa !13
  %16 = load ptr, ptr %6, align 8, !tbaa !15
  %17 = call i32 @strcmp(ptr noundef %16, ptr noundef @.str.8) #12
  %18 = icmp eq i32 %17, 0
  br i1 %18, label %19, label %38

19:                                               ; preds = %3
  %20 = load ptr, ptr %7, align 8, !tbaa !15
  %21 = icmp ne ptr %20, null
  br i1 %21, label %22, label %28

22:                                               ; preds = %19
  %23 = load ptr, ptr %7, align 8, !tbaa !15
  %24 = getelementptr inbounds i8, ptr %23, i64 0
  %25 = load i8, ptr %24, align 1, !tbaa !17
  %26 = sext i8 %25 to i32
  %27 = icmp ne i32 %26, 0
  br label %28

28:                                               ; preds = %22, %19
  %29 = phi i1 [ false, %19 ], [ %27, %22 ]
  %30 = zext i1 %29 to i32
  %31 = load ptr, ptr %8, align 8, !tbaa !13
  %32 = getelementptr inbounds nuw %struct.tar, ptr %31, i32 0, i32 26
  store i32 %30, ptr %32, align 4, !tbaa !38
  %33 = load ptr, ptr %8, align 8, !tbaa !13
  %34 = getelementptr inbounds nuw %struct.tar, ptr %33, i32 0, i32 26
  %35 = load i32, ptr %34, align 4, !tbaa !38
  %36 = load ptr, ptr %8, align 8, !tbaa !13
  %37 = getelementptr inbounds nuw %struct.tar, ptr %36, i32 0, i32 25
  store i32 %35, ptr %37, align 8, !tbaa !41
  store i32 0, ptr %4, align 4
  store i32 1, ptr %10, align 4
  br label %110

38:                                               ; preds = %3
  %39 = load ptr, ptr %6, align 8, !tbaa !15
  %40 = call i32 @strcmp(ptr noundef %39, ptr noundef @.str.9) #12
  %41 = icmp eq i32 %40, 0
  br i1 %41, label %42, label %70

42:                                               ; preds = %38
  %43 = load ptr, ptr %7, align 8, !tbaa !15
  %44 = icmp eq ptr %43, null
  br i1 %44, label %51, label %45

45:                                               ; preds = %42
  %46 = load ptr, ptr %7, align 8, !tbaa !15
  %47 = getelementptr inbounds i8, ptr %46, i64 0
  %48 = load i8, ptr %47, align 1, !tbaa !17
  %49 = sext i8 %48 to i32
  %50 = icmp eq i32 %49, 0
  br i1 %50, label %51, label %54

51:                                               ; preds = %45, %42
  %52 = load ptr, ptr %5, align 8, !tbaa !11
  %53 = getelementptr inbounds nuw %struct.archive_read, ptr %52, i32 0, i32 0
  call void (ptr, i32, ptr, ...) @archive_set_error(ptr noundef %53, i32 noundef -1, ptr noundef @.str.10)
  br label %68

54:                                               ; preds = %45
  %55 = load ptr, ptr %5, align 8, !tbaa !11
  %56 = getelementptr inbounds nuw %struct.archive_read, ptr %55, i32 0, i32 0
  %57 = load ptr, ptr %7, align 8, !tbaa !15
  %58 = call ptr @archive_string_conversion_from_charset(ptr noundef %56, ptr noundef %57, i32 noundef 0)
  %59 = load ptr, ptr %8, align 8, !tbaa !13
  %60 = getelementptr inbounds nuw %struct.tar, ptr %59, i32 0, i32 21
  store ptr %58, ptr %60, align 8, !tbaa !42
  %61 = load ptr, ptr %8, align 8, !tbaa !13
  %62 = getelementptr inbounds nuw %struct.tar, ptr %61, i32 0, i32 21
  %63 = load ptr, ptr %62, align 8, !tbaa !42
  %64 = icmp ne ptr %63, null
  br i1 %64, label %65, label %66

65:                                               ; preds = %54
  store i32 0, ptr %9, align 4, !tbaa !9
  br label %67

66:                                               ; preds = %54
  store i32 -30, ptr %9, align 4, !tbaa !9
  br label %67

67:                                               ; preds = %66, %65
  br label %68

68:                                               ; preds = %67, %51
  %69 = load i32, ptr %9, align 4, !tbaa !9
  store i32 %69, ptr %4, align 4
  store i32 1, ptr %10, align 4
  br label %110

70:                                               ; preds = %38
  %71 = load ptr, ptr %6, align 8, !tbaa !15
  %72 = call i32 @strcmp(ptr noundef %71, ptr noundef @.str.11) #12
  %73 = icmp eq i32 %72, 0
  br i1 %73, label %74, label %88

74:                                               ; preds = %70
  %75 = load ptr, ptr %7, align 8, !tbaa !15
  %76 = icmp ne ptr %75, null
  br i1 %76, label %77, label %83

77:                                               ; preds = %74
  %78 = load ptr, ptr %7, align 8, !tbaa !15
  %79 = getelementptr inbounds i8, ptr %78, i64 0
  %80 = load i8, ptr %79, align 1, !tbaa !17
  %81 = sext i8 %80 to i32
  %82 = icmp ne i32 %81, 0
  br label %83

83:                                               ; preds = %77, %74
  %84 = phi i1 [ false, %74 ], [ %82, %77 ]
  %85 = zext i1 %84 to i32
  %86 = load ptr, ptr %8, align 8, !tbaa !13
  %87 = getelementptr inbounds nuw %struct.tar, ptr %86, i32 0, i32 27
  store i32 %85, ptr %87, align 8, !tbaa !43
  store i32 0, ptr %4, align 4
  store i32 1, ptr %10, align 4
  br label %110

88:                                               ; preds = %70
  %89 = load ptr, ptr %6, align 8, !tbaa !15
  %90 = call i32 @strcmp(ptr noundef %89, ptr noundef @.str.12) #12
  %91 = icmp eq i32 %90, 0
  br i1 %91, label %92, label %106

92:                                               ; preds = %88
  %93 = load ptr, ptr %7, align 8, !tbaa !15
  %94 = icmp ne ptr %93, null
  br i1 %94, label %95, label %101

95:                                               ; preds = %92
  %96 = load ptr, ptr %7, align 8, !tbaa !15
  %97 = getelementptr inbounds i8, ptr %96, i64 0
  %98 = load i8, ptr %97, align 1, !tbaa !17
  %99 = sext i8 %98 to i32
  %100 = icmp ne i32 %99, 0
  br label %101

101:                                              ; preds = %95, %92
  %102 = phi i1 [ false, %92 ], [ %100, %95 ]
  %103 = zext i1 %102 to i32
  %104 = load ptr, ptr %8, align 8, !tbaa !13
  %105 = getelementptr inbounds nuw %struct.tar, ptr %104, i32 0, i32 28
  store i32 %103, ptr %105, align 4, !tbaa !44
  store i32 0, ptr %4, align 4
  store i32 1, ptr %10, align 4
  br label %110

106:                                              ; preds = %88
  br label %107

107:                                              ; preds = %106
  br label %108

108:                                              ; preds = %107
  br label %109

109:                                              ; preds = %108
  store i32 -20, ptr %4, align 4
  store i32 1, ptr %10, align 4
  br label %110

110:                                              ; preds = %109, %101, %83, %68, %28
  call void @llvm.lifetime.end.p0(i64 4, ptr %9) #10
  call void @llvm.lifetime.end.p0(i64 8, ptr %8) #10
  %111 = load i32, ptr %4, align 4
  ret i32 %111
}