; Function Attrs: nounwind uwtable
define internal range(i32 -30, 1) i32 @archive_read_format_tar_options(ptr noundef %0, ptr noundef readonly captures(none) %1, ptr noundef %2) #0 {
  %4 = getelementptr inbounds nuw i8, ptr %0, i64 2072
  %5 = load ptr, ptr %4, align 8, !tbaa !17
  %6 = load ptr, ptr %5, align 8, !tbaa !36
  %7 = tail call i32 @strcmp(ptr noundef nonnull dereferenceable(1) %1, ptr noundef nonnull dereferenceable(10) @.str.8) #15
  %8 = icmp eq i32 %7, 0
  br i1 %8, label %9, label %18

9:                                                ; preds = %3
  %.not28 = icmp eq ptr %2, null
  br i1 %.not28, label %14, label %10

10:                                               ; preds = %9
  %11 = load i8, ptr %2, align 1, !tbaa !4
  %12 = icmp ne i8 %11, 0
  %13 = zext i1 %12 to i32
  br label %14

14:                                               ; preds = %10, %9
  %15 = phi i32 [ 0, %9 ], [ %13, %10 ]
  %16 = getelementptr inbounds nuw i8, ptr %6, i64 300
  store i32 %15, ptr %16, align 4, !tbaa !38
  %17 = getelementptr inbounds nuw i8, ptr %6, i64 296
  store i32 %15, ptr %17, align 8, !tbaa !41
  br label %52

18:                                               ; preds = %3
  %19 = tail call i32 @strcmp(ptr noundef nonnull dereferenceable(1) %1, ptr noundef nonnull dereferenceable(11) @.str.9) #15
  %20 = icmp eq i32 %19, 0
  br i1 %20, label %21, label %30

21:                                               ; preds = %18
  %22 = icmp eq ptr %2, null
  br i1 %22, label %26, label %23

23:                                               ; preds = %21
  %24 = load i8, ptr %2, align 1, !tbaa !4
  %25 = icmp eq i8 %24, 0
  br i1 %25, label %26, label %27

26:                                               ; preds = %23, %21
  tail call void (ptr, i32, ptr, ...) @archive_set_error(ptr noundef nonnull %0, i32 noundef -1, ptr noundef nonnull @.str.10) #13
  br label %52

27:                                               ; preds = %23
  %28 = tail call ptr @archive_string_conversion_from_charset(ptr noundef nonnull %0, ptr noundef nonnull %2, i32 noundef 0) #13
  %29 = getelementptr inbounds nuw i8, ptr %6, i64 264
  store ptr %28, ptr %29, align 8, !tbaa !42
  %.not27 = icmp eq ptr %28, null
  %. = select i1 %.not27, i32 -30, i32 0
  br label %52

30:                                               ; preds = %18
  %31 = tail call i32 @strcmp(ptr noundef nonnull dereferenceable(1) %1, ptr noundef nonnull dereferenceable(8) @.str.11) #15
  %32 = icmp eq i32 %31, 0
  br i1 %32, label %33, label %41

33:                                               ; preds = %30
  %.not26 = icmp eq ptr %2, null
  br i1 %.not26, label %38, label %34

34:                                               ; preds = %33
  %35 = load i8, ptr %2, align 1, !tbaa !4
  %36 = icmp ne i8 %35, 0
  %37 = zext i1 %36 to i32
  br label %38

38:                                               ; preds = %34, %33
  %39 = phi i32 [ 0, %33 ], [ %37, %34 ]
  %40 = getelementptr inbounds nuw i8, ptr %6, i64 304
  store i32 %39, ptr %40, align 8, !tbaa !43
  br label %52

41:                                               ; preds = %30
  %42 = tail call i32 @strcmp(ptr noundef nonnull dereferenceable(1) %1, ptr noundef nonnull dereferenceable(27) @.str.12) #15
  %43 = icmp eq i32 %42, 0
  br i1 %43, label %44, label %52

44:                                               ; preds = %41
  %.not = icmp eq ptr %2, null
  br i1 %.not, label %49, label %45

45:                                               ; preds = %44
  %46 = load i8, ptr %2, align 1, !tbaa !4
  %47 = icmp ne i8 %46, 0
  %48 = zext i1 %47 to i32
  br label %49

49:                                               ; preds = %45, %44
  %50 = phi i32 [ 0, %44 ], [ %48, %45 ]
  %51 = getelementptr inbounds nuw i8, ptr %6, i64 308
  store i32 %50, ptr %51, align 4, !tbaa !44
  br label %52

52:                                               ; preds = %41, %26, %27, %49, %38, %14
  %.024 = phi i32 [ 0, %14 ], [ 0, %38 ], [ 0, %49 ], [ -25, %26 ], [ %., %27 ], [ -20, %41 ]
  ret i32 %.024
}